target datalayout = "e-m:e-p270:32:32-p271:32:32-p272:64:64-i64:64-i128:128-f80:128-n8:16:32:64-S128"
target triple = "x86_64-pc-linux-gnu"

%struct.lean_object = type { i32, i32 }
%struct.lean_ctor_object = type { %struct.lean_object, [0 x ptr] }

@l_USize_reduceToNat___closed__1 = internal global ptr null, align 8
@l_USize_reduceToNat___closed__2 = internal global ptr null, align 8
@l_USize_reduceToNat___closed__3 = internal global ptr null, align 8

; Function Attrs: inlinehint nounwind uwtable
define internal zeroext i1 @lean_is_st(ptr noundef %0) #0 {
  %2 = alloca ptr, align 8
  store ptr %0, ptr %2, align 8, !tbaa !13
  %3 = load ptr, ptr %2, align 8, !tbaa !13
  %4 = getelementptr inbounds nuw %struct.lean_object, ptr %3, i32 0, i32 0
  %5 = load i32, ptr %4, align 4, !tbaa !15
  %6 = icmp sgt i32 %5, 0
  ret i1 %6
}

; Function Attrs: inlinehint nounwind uwtable
define internal ptr @lean_to_ctor(ptr noundef %0) #0 {
  %2 = alloca ptr, align 8
  store ptr %0, ptr %2, align 8, !tbaa !13
  %3 = load ptr, ptr %2, align 8, !tbaa !13
  ret ptr %3
}

; Function Attrs: alwaysinline nounwind uwtable
define internal void @lean_dec_ref(ptr noundef %0) #1 {
  %2 = alloca ptr, align 8
  store ptr %0, ptr %2, align 8, !tbaa !13
  %3 = load ptr, ptr %2, align 8, !tbaa !13
  %4 = getelementptr inbounds nuw %struct.lean_object, ptr %3, i32 0, i32 0
  %5 = load i32, ptr %4, align 4, !tbaa !15
  %6 = icmp sgt i32 %5, 1
  %7 = zext i1 %6 to i32
  %8 = sext i32 %7 to i64
  %9 = call i64 @llvm.expect.i64(i64 %8, i64 1)
  %10 = icmp ne i64 %9, 0
  br i1 %10, label %11, label %16

11:                                               ; preds = %1
  %12 = load ptr, ptr %2, align 8, !tbaa !13
  %13 = getelementptr inbounds nuw %struct.lean_object, ptr %12, i32 0, i32 0
  %14 = load i32, ptr %13, align 4, !tbaa !15
  %15 = add i32 %14, -1
  store i32 %15, ptr %13, align 4, !tbaa !15
  br label %24

16:                                               ; preds = %1
  %17 = load ptr, ptr %2, align 8, !tbaa !13
  %18 = getelementptr inbounds nuw %struct.lean_object, ptr %17, i32 0, i32 0
  %19 = load i32, ptr %18, align 4, !tbaa !15
  %20 = icmp ne i32 %19, 0
  br i1 %20, label %21, label %23

21:                                               ; preds = %16
  %22 = load ptr, ptr %2, align 8, !tbaa !13
  call void @lean_dec_ref_cold(ptr noundef %22)
  br label %23

23:                                               ; preds = %21, %16
  br label %24

24:                                               ; preds = %23, %11
  ret void
}

; Function Attrs: inlinehint nounwind uwtable
define internal void @lean_inc_ref(ptr noundef %0) #0 {
  %2 = alloca ptr, align 8
  store ptr %0, ptr %2, align 8, !tbaa !13
  %3 = load ptr, ptr %2, align 8, !tbaa !13
  %4 = call zeroext i1 @lean_is_st(ptr noundef %3)
  %5 = zext i1 %4 to i64
  %6 = call i64 @llvm.expect.i64(i64 %5, i64 1)
  %7 = icmp ne i64 %6, 0
  br i1 %7, label %8, label %13

8:                                                ; preds = %1
  %9 = load ptr, ptr %2, align 8, !tbaa !13
  %10 = getelementptr inbounds nuw %struct.lean_object, ptr %9, i32 0, i32 0
  %11 = load i32, ptr %10, align 4, !tbaa !15
  %12 = add i32 %11, 1
  store i32 %12, ptr %10, align 4, !tbaa !15
  br label %21

13:                                               ; preds = %1
  %14 = load ptr, ptr %2, align 8, !tbaa !13
  %15 = getelementptr inbounds nuw %struct.lean_object, ptr %14, i32 0, i32 0
  %16 = load i32, ptr %15, align 4, !tbaa !15
  %17 = icmp ne i32 %16, 0
  br i1 %17, label %18, label %20

18:                                               ; preds = %13
  %19 = load ptr, ptr %2, align 8, !tbaa !13
  call void @lean_inc_ref_cold(ptr noundef %19)
  br label %20

20:                                               ; preds = %18, %13
  br label %21

21:                                               ; preds = %20, %8
  ret void
}

; Function Attrs: alwaysinline nounwind uwtable
define internal zeroext i1 @lean_is_scalar(ptr noundef %0) #1 {
  %2 = alloca ptr, align 8
  store ptr %0, ptr %2, align 8, !tbaa !13
  %3 = load ptr, ptr %2, align 8, !tbaa !13
  %4 = ptrtoint ptr %3 to i64
  %5 = and i64 %4, 1
  %6 = icmp eq i64 %5, 1
  ret i1 %6
}

; Function Attrs: inlinehint nounwind uwtable
define internal ptr @lean_ctor_obj_cptr(ptr noundef %0) #0 {
  %2 = alloca ptr, align 8
  store ptr %0, ptr %2, align 8, !tbaa !13
  %3 = load ptr, ptr %2, align 8, !tbaa !13
  %4 = call ptr @lean_to_ctor(ptr noundef %3)
  %5 = getelementptr inbounds nuw %struct.lean_ctor_object, ptr %4, i32 0, i32 1
  %6 = getelementptr inbounds [0 x ptr], ptr %5, i64 0, i64 0
  ret ptr %6
}

; Function Attrs: inlinehint nounwind uwtable
define internal ptr @lean_box(i64 noundef %0) #0 {
  %2 = alloca i64, align 8
  store i64 %0, ptr %2, align 8, !tbaa !9
  %3 = load i64, ptr %2, align 8, !tbaa !9
  %4 = shl i64 %3, 1
  %5 = or i64 %4, 1
  %6 = inttoptr i64 %5 to ptr
  ret ptr %6
}

; Function Attrs: alwaysinline nounwind uwtable
define internal void @lean_dec(ptr noundef %0) #1 {
  %2 = alloca ptr, align 8
  store ptr %0, ptr %2, align 8, !tbaa !13
  %3 = load ptr, ptr %2, align 8, !tbaa !13
  %4 = call zeroext i1 @lean_is_scalar(ptr noundef %3)
  br i1 %4, label %7, label %5

5:                                                ; preds = %1
  %6 = load ptr, ptr %2, align 8, !tbaa !13
  call void @lean_dec_ref(ptr noundef %6)
  br label %7

7:                                                ; preds = %5, %1
  ret void
}

; Function Attrs: alwaysinline nounwind uwtable
define internal void @lean_inc(ptr noundef %0) #1 {
  %2 = alloca ptr, align 8
  store ptr %0, ptr %2, align 8, !tbaa !13
  %3 = load ptr, ptr %2, align 8, !tbaa !13
  %4 = call zeroext i1 @lean_is_scalar(ptr noundef %3)
  br i1 %4, label %7, label %5

5:                                                ; preds = %1
  %6 = load ptr, ptr %2, align 8, !tbaa !13
  call void @lean_inc_ref(ptr noundef %6)
  br label %7

7:                                                ; preds = %5, %1
  ret void
}

; Function Attrs: inlinehint nounwind uwtable
define internal ptr @lean_ctor_get(ptr noundef %0, i32 noundef %1) #0 {
  %3 = alloca ptr, align 8
  %4 = alloca i32, align 4
  store ptr %0, ptr %3, align 8, !tbaa !13
  store i32 %1, ptr %4, align 4, !tbaa !7
  %5 = load ptr, ptr %3, align 8, !tbaa !13
  %6 = call ptr @lean_ctor_obj_cptr(ptr noundef %5)
  %7 = load i32, ptr %4, align 4, !tbaa !7
  %8 = zext i32 %7 to i64
  %9 = getelementptr inbounds nuw ptr, ptr %6, i64 %8
  %10 = load ptr, ptr %9, align 8, !tbaa !13
  ret ptr %10
}

; Function Attrs: nounwind uwtable
define ptr @l_USize_reduceToNat(ptr noundef %0, ptr noundef %1, ptr noundef %2, ptr noundef %3, ptr noundef %4, ptr noundef %5, ptr noundef %6, ptr noundef %7, ptr noundef %8) #2 {
  %10 = alloca ptr, align 8
  %11 = alloca ptr, align 8
  %12 = alloca ptr, align 8
  %13 = alloca ptr, align 8
  %14 = alloca ptr, align 8
  %15 = alloca ptr, align 8
  %16 = alloca ptr, align 8
  %17 = alloca ptr, align 8
  %18 = alloca ptr, align 8
  %19 = alloca ptr, align 8
  %20 = alloca ptr, align 8
  %21 = alloca ptr, align 8
  %22 = alloca ptr, align 8
  %23 = alloca ptr, align 8
  %24 = alloca ptr, align 8
  %25 = alloca ptr, align 8
  %26 = alloca i8, align 1
  %27 = alloca ptr, align 8
  %28 = alloca ptr, align 8
  %29 = alloca i32, align 4
  %30 = alloca ptr, align 8
  %31 = alloca ptr, align 8
  %32 = alloca ptr, align 8
  %33 = alloca i8, align 1
  %34 = alloca ptr, align 8
  %35 = alloca ptr, align 8
  %36 = alloca ptr, align 8
  store ptr %0, ptr %11, align 8, !tbaa !13
  store ptr %1, ptr %12, align 8, !tbaa !13
  store ptr %2, ptr %13, align 8, !tbaa !13
  store ptr %3, ptr %14, align 8, !tbaa !13
  store ptr %4, ptr %15, align 8, !tbaa !13
  store ptr %5, ptr %16, align 8, !tbaa !13
  store ptr %6, ptr %17, align 8, !tbaa !13
  store ptr %7, ptr %18, align 8, !tbaa !13
  store ptr %8, ptr %19, align 8, !tbaa !13
  br label %37

37:                                               ; preds = %9
  call void @llvm.lifetime.start.p0(i64 8, ptr %20) #8
  call void @llvm.lifetime.start.p0(i64 8, ptr %21) #8
  call void @llvm.lifetime.start.p0(i64 8, ptr %22) #8
  call void @llvm.lifetime.start.p0(i64 8, ptr %23) #8
  call void @llvm.lifetime.start.p0(i64 8, ptr %24) #8
  call void @llvm.lifetime.start.p0(i64 8, ptr %25) #8
  call void @llvm.lifetime.start.p0(i64 1, ptr %26) #8
  %38 = load ptr, ptr %11, align 8, !tbaa !13
  %39 = load ptr, ptr %15, align 8, !tbaa !13
  %40 = load ptr, ptr %16, align 8, !tbaa !13
  %41 = load ptr, ptr %17, align 8, !tbaa !13
  %42 = load ptr, ptr %18, align 8, !tbaa !13
  %43 = load ptr, ptr %19, align 8, !tbaa !13
  %44 = call ptr @l_Lean_Meta_instantiateMVarsIfMVarApp(ptr noundef %38, ptr noundef %39, ptr noundef %40, ptr noundef %41, ptr noundef %42, ptr noundef %43)
  store ptr %44, ptr %20, align 8, !tbaa !13
  %45 = load ptr, ptr %20, align 8, !tbaa !13
  %46 = call ptr @lean_ctor_get(ptr noundef %45, i32 noundef 0)
  store ptr %46, ptr %21, align 8, !tbaa !13
  %47 = load ptr, ptr %21, align 8, !tbaa !13
  call void @lean_inc(ptr noundef %47)
  %48 = load ptr, ptr %20, align 8, !tbaa !13
  %49 = call ptr @lean_ctor_get(ptr noundef %48, i32 noundef 1)
  store ptr %49, ptr %22, align 8, !tbaa !13
  %50 = load ptr, ptr %22, align 8, !tbaa !13
  call void @lean_inc(ptr noundef %50)
  %51 = load ptr, ptr %20, align 8, !tbaa !13
  call void @lean_dec(ptr noundef %51)
  %52 = load ptr, ptr @l_USize_reduceToNat___closed__1, align 8, !tbaa !13
  store ptr %52, ptr %23, align 8, !tbaa !13
  %53 = load ptr, ptr @l_USize_reduceToNat___closed__2, align 8, !tbaa !13
  store ptr %53, ptr %24, align 8, !tbaa !13
  %54 = load ptr, ptr %21, align 8, !tbaa !13
  %55 = call ptr @l_Lean_Expr_cleanupAnnotations(ptr noundef %54)
  store ptr %55, ptr %25, align 8, !tbaa !13
  %56 = load ptr, ptr %25, align 8, !tbaa !13
  %57 = call zeroext i8 @l_Lean_Expr_isApp(ptr noundef %56)
  store i8 %57, ptr %26, align 1, !tbaa !4
  %58 = load i8, ptr %26, align 1, !tbaa !4
  %59 = zext i8 %58 to i32
  %60 = icmp eq i32 %59, 0
  br i1 %60, label %61, label %76

61:                                               ; preds = %37
  call void @llvm.lifetime.start.p0(i64 8, ptr %27) #8
  call void @llvm.lifetime.start.p0(i64 8, ptr %28) #8
  %62 = load ptr, ptr %25, align 8, !tbaa !13
  call void @lean_dec(ptr noundef %62)
  %63 = call ptr @lean_box(i64 noundef 0)
  store ptr %63, ptr %27, align 8, !tbaa !13
  %64 = load ptr, ptr %24, align 8, !tbaa !13
  %65 = load ptr, ptr %27, align 8, !tbaa !13
  %66 = load ptr, ptr %12, align 8, !tbaa !13
  %67 = load ptr, ptr %13, align 8, !tbaa !13
  %68 = load ptr, ptr %14, align 8, !tbaa !13
  %69 = load ptr, ptr %15, align 8, !tbaa !13
  %70 = load ptr, ptr %16, align 8, !tbaa !13
  %71 = load ptr, ptr %17, align 8, !tbaa !13
  %72 = load ptr, ptr %18, align 8, !tbaa !13
  %73 = load ptr, ptr %22, align 8, !tbaa !13
  %74 = call ptr @lean_apply_9(ptr noundef %64, ptr noundef %65, ptr noundef %66, ptr noundef %67, ptr noundef %68, ptr noundef %69, ptr noundef %70, ptr noundef %71, ptr noundef %72, ptr noundef %73)
  store ptr %74, ptr %28, align 8, !tbaa !13
  %75 = load ptr, ptr %28, align 8, !tbaa !13
  store ptr %75, ptr %10, align 8
  store i32 1, ptr %29, align 4
  call void @llvm.lifetime.end.p0(i64 8, ptr %28) #8
  call void @llvm.lifetime.end.p0(i64 8, ptr %27) #8
  br label %120

76:                                               ; preds = %37
  call void @llvm.lifetime.start.p0(i64 8, ptr %30) #8
  call void @llvm.lifetime.start.p0(i64 8, ptr %31) #8
  call void @llvm.lifetime.start.p0(i64 8, ptr %32) #8
  call void @llvm.lifetime.start.p0(i64 1, ptr %33) #8
  %77 = load ptr, ptr %25, align 8, !tbaa !13
  %78 = call ptr @lean_box(i64 noundef 0)
  %79 = call ptr @l_Lean_Expr_appArg(ptr noundef %77, ptr noundef %78)
  store ptr %79, ptr %30, align 8, !tbaa !13
  %80 = load ptr, ptr %25, align 8, !tbaa !13
  %81 = call ptr @lean_box(i64 noundef 0)
  %82 = call ptr @l_Lean_Expr_appFnCleanup(ptr noundef %80, ptr noundef %81)
  store ptr %82, ptr %31, align 8, !tbaa !13
  %83 = load ptr, ptr @l_USize_reduceToNat___closed__3, align 8, !tbaa !13
  store ptr %83, ptr %32, align 8, !tbaa !13
  %84 = load ptr, ptr %31, align 8, !tbaa !13
  %85 = load ptr, ptr %32, align 8, !tbaa !13
  %86 = call zeroext i8 @l_Lean_Expr_isConstOf(ptr noundef %84, ptr noundef %85)
  store i8 %86, ptr %33, align 1, !tbaa !4
  %87 = load ptr, ptr %31, align 8, !tbaa !13
  call void @lean_dec(ptr noundef %87)
  %88 = load i8, ptr %33, align 1, !tbaa !4
  %89 = zext i8 %88 to i32
  %90 = icmp eq i32 %89, 0
  br i1 %90, label %91, label %106

91:                                               ; preds = %76
  call void @llvm.lifetime.start.p0(i64 8, ptr %34) #8
  call void @llvm.lifetime.start.p0(i64 8, ptr %35) #8
  %92 = load ptr, ptr %30, align 8, !tbaa !13
  call void @lean_dec(ptr noundef %92)
  %93 = call ptr @lean_box(i64 noundef 0)
  store ptr %93, ptr %34, align 8, !tbaa !13
  %94 = load ptr, ptr %24, align 8, !tbaa !13
  %95 = load ptr, ptr %34, align 8, !tbaa !13
  %96 = load ptr, ptr %12, align 8, !tbaa !13
  %97 = load ptr, ptr %13, align 8, !tbaa !13
  %98 = load ptr, ptr %14, align 8, !tbaa !13
  %99 = load ptr, ptr %15, align 8, !tbaa !13
  %100 = load ptr, ptr %16, align 8, !tbaa !13
  %101 = load ptr, ptr %17, align 8, !tbaa !13
  %102 = load ptr, ptr %18, align 8, !tbaa !13
  %103 = load ptr, ptr %22, align 8, !tbaa !13
  %104 = call ptr @lean_apply_9(ptr noundef %94, ptr noundef %95, ptr noundef %96, ptr noundef %97, ptr noundef %98, ptr noundef %99, ptr noundef %100, ptr noundef %101, ptr noundef %102, ptr noundef %103)
  store ptr %104, ptr %35, align 8, !tbaa !13
  %105 = load ptr, ptr %35, align 8, !tbaa !13
  store ptr %105, ptr %10, align 8
  store i32 1, ptr %29, align 4
  call void @llvm.lifetime.end.p0(i64 8, ptr %35) #8
  call void @llvm.lifetime.end.p0(i64 8, ptr %34) #8
  br label %119

106:                                              ; preds = %76
  call void @llvm.lifetime.start.p0(i64 8, ptr %36) #8
  %107 = load ptr, ptr %23, align 8, !tbaa !13
  %108 = load ptr, ptr %30, align 8, !tbaa !13
  %109 = load ptr, ptr %12, align 8, !tbaa !13
  %110 = load ptr, ptr %13, align 8, !tbaa !13
  %111 = load ptr, ptr %14, align 8, !tbaa !13
  %112 = load ptr, ptr %15, align 8, !tbaa !13
  %113 = load ptr, ptr %16, align 8, !tbaa !13
  %114 = load ptr, ptr %17, align 8, !tbaa !13
  %115 = load ptr, ptr %18, align 8, !tbaa !13
  %116 = load ptr, ptr %22, align 8, !tbaa !13
  %117 = call ptr @lean_apply_9(ptr noundef %107, ptr noundef %108, ptr noundef %109, ptr noundef %110, ptr noundef %111, ptr noundef %112, ptr noundef %113, ptr noundef %114, ptr noundef %115, ptr noundef %116)
  store ptr %117, ptr %36, align 8, !tbaa !13
  %118 = load ptr, ptr %36, align 8, !tbaa !13
  store ptr %118, ptr %10, align 8
  store i32 1, ptr %29, align 4
  call void @llvm.lifetime.end.p0(i64 8, ptr %36) #8
  br label %119

119:                                              ; preds = %106, %91
  call void @llvm.lifetime.end.p0(i64 1, ptr %33) #8
  call void @llvm.lifetime.end.p0(i64 8, ptr %32) #8
  call void @llvm.lifetime.end.p0(i64 8, ptr %31) #8
  call void @llvm.lifetime.end.p0(i64 8, ptr %30) #8
  br label %120

120:                                              ; preds = %119, %61
  call void @llvm.lifetime.end.p0(i64 1, ptr %26) #8
  call void @llvm.lifetime.end.p0(i64 8, ptr %25) #8
  call void @llvm.lifetime.end.p0(i64 8, ptr %24) #8
  call void @llvm.lifetime.end.p0(i64 8, ptr %23) #8
  call void @llvm.lifetime.end.p0(i64 8, ptr %22) #8
  call void @llvm.lifetime.end.p0(i64 8, ptr %21) #8
  call void @llvm.lifetime.end.p0(i64 8, ptr %20) #8
  %121 = load ptr, ptr %10, align 8
  ret ptr %121
}