; Function Attrs: nounwind uwtable
define ptr @l_USize_reduceToNat(ptr noundef %0, ptr noundef %1, ptr noundef %2, ptr noundef %3, ptr noundef %4, ptr noundef %5, ptr noundef %6, ptr noundef %7, ptr noundef %8) #0 {
  %10 = tail call ptr @l_Lean_Meta_instantiateMVarsIfMVarApp(ptr noundef %0, ptr noundef %4, ptr noundef %5, ptr noundef %6, ptr noundef %7, ptr noundef %8) #5
  %11 = getelementptr inbounds nuw i8, ptr %10, i64 8
  %12 = load ptr, ptr %11, align 8, !tbaa !4
  %13 = ptrtoint ptr %12 to i64
  %14 = and i64 %13, 1
  %.not = icmp eq i64 %14, 0
  br i1 %.not, label %15, label %lean_inc.exit55

15:                                               ; preds = %9
  %.val.i = load i32, ptr %12, align 4, !tbaa !8
  %16 = icmp sgt i32 %.val.i, 0
  br i1 %16, label %17, label %19, !prof !11

17:                                               ; preds = %15
  %18 = add nuw i32 %.val.i, 1
  store i32 %18, ptr %12, align 4, !tbaa !8
  br label %lean_inc.exit55

19:                                               ; preds = %15
  %.not.i65 = icmp eq i32 %.val.i, 0
  br i1 %.not.i65, label %lean_inc.exit55, label %20

20:                                               ; preds = %19
  tail call void @lean_inc_ref_cold(ptr noundef nonnull %12) #5
  br label %lean_inc.exit55

lean_inc.exit55:                                  ; preds = %20, %19, %17, %9
  %21 = getelementptr inbounds nuw i8, ptr %10, i64 16
  %22 = load ptr, ptr %21, align 8, !tbaa !4
  %23 = ptrtoint ptr %22 to i64
  %24 = and i64 %23, 1
  %.not69 = icmp eq i64 %24, 0
  br i1 %.not69, label %25, label %lean_inc.exit

25:                                               ; preds = %lean_inc.exit55
  %.val.i66 = load i32, ptr %22, align 4, !tbaa !8
  %26 = icmp sgt i32 %.val.i66, 0
  br i1 %26, label %27, label %29, !prof !11

27:                                               ; preds = %25
  %28 = add nuw i32 %.val.i66, 1
  store i32 %28, ptr %22, align 4, !tbaa !8
  br label %lean_inc.exit

29:                                               ; preds = %25
  %.not.i67 = icmp eq i32 %.val.i66, 0
  br i1 %.not.i67, label %lean_inc.exit, label %30

30:                                               ; preds = %29
  tail call void @lean_inc_ref_cold(ptr noundef nonnull %22) #5
  br label %lean_inc.exit

lean_inc.exit:                                    ; preds = %30, %29, %27, %lean_inc.exit55
  %31 = ptrtoint ptr %10 to i64
  %32 = and i64 %31, 1
  %.not70 = icmp eq i64 %32, 0
  br i1 %.not70, label %33, label %lean_dec.exit58

33:                                               ; preds = %lean_inc.exit
  %34 = load i32, ptr %10, align 4, !tbaa !8
  %35 = icmp sgt i32 %34, 1
  br i1 %35, label %36, label %38, !prof !11

36:                                               ; preds = %33
  %37 = add nsw i32 %34, -1
  store i32 %37, ptr %10, align 4, !tbaa !8
  br label %lean_dec.exit58

38:                                               ; preds = %33
  %.not.i = icmp eq i32 %34, 0
  br i1 %.not.i, label %lean_dec.exit58, label %39

39:                                               ; preds = %38
  tail call void @lean_dec_ref_cold(ptr noundef nonnull %10) #5
  br label %lean_dec.exit58

lean_dec.exit58:                                  ; preds = %39, %38, %36, %lean_inc.exit
  %40 = load ptr, ptr @l_USize_reduceToNat___closed__1, align 8, !tbaa !4
  %41 = load ptr, ptr @l_USize_reduceToNat___closed__2, align 8, !tbaa !4
  %42 = tail call ptr @l_Lean_Expr_cleanupAnnotations(ptr noundef %12) #5
  %43 = tail call zeroext i8 @l_Lean_Expr_isApp(ptr noundef %42) #5
  %44 = icmp eq i8 %43, 0
  br i1 %44, label %45, label %56

45:                                               ; preds = %lean_dec.exit58
  %46 = ptrtoint ptr %42 to i64
  %47 = and i64 %46, 1
  %.not73 = icmp eq i64 %47, 0
  br i1 %.not73, label %48, label %lean_dec.exit57

48:                                               ; preds = %45
  %49 = load i32, ptr %42, align 4, !tbaa !8
  %50 = icmp sgt i32 %49, 1
  br i1 %50, label %51, label %53, !prof !11

51:                                               ; preds = %48
  %52 = add nsw i32 %49, -1
  store i32 %52, ptr %42, align 4, !tbaa !8
  br label %lean_dec.exit57

53:                                               ; preds = %48
  %.not.i59 = icmp eq i32 %49, 0
  br i1 %.not.i59, label %lean_dec.exit57, label %54

54:                                               ; preds = %53
  tail call void @lean_dec_ref_cold(ptr noundef nonnull %42) #5
  br label %lean_dec.exit57

lean_dec.exit57:                                  ; preds = %54, %53, %51, %45
  %55 = tail call ptr @lean_apply_9(ptr noundef %41, ptr noundef nonnull inttoptr (i64 1 to ptr), ptr noundef %1, ptr noundef %2, ptr noundef %3, ptr noundef %4, ptr noundef %5, ptr noundef %6, ptr noundef %7, ptr noundef %22) #5
  br label %84

56:                                               ; preds = %lean_dec.exit58
  %57 = tail call ptr @l_Lean_Expr_appArg(ptr noundef %42, ptr noundef nonnull inttoptr (i64 1 to ptr)) #5
  %58 = tail call ptr @l_Lean_Expr_appFnCleanup(ptr noundef %42, ptr noundef nonnull inttoptr (i64 1 to ptr)) #5
  %59 = load ptr, ptr @l_USize_reduceToNat___closed__3, align 8, !tbaa !4
  %60 = tail call zeroext i8 @l_Lean_Expr_isConstOf(ptr noundef %58, ptr noundef %59) #5
  %61 = ptrtoint ptr %58 to i64
  %62 = and i64 %61, 1
  %.not71 = icmp eq i64 %62, 0
  br i1 %.not71, label %63, label %lean_dec.exit56

63:                                               ; preds = %56
  %64 = load i32, ptr %58, align 4, !tbaa !8
  %65 = icmp sgt i32 %64, 1
  br i1 %65, label %66, label %68, !prof !11

66:                                               ; preds = %63
  %67 = add nsw i32 %64, -1
  store i32 %67, ptr %58, align 4, !tbaa !8
  br label %lean_dec.exit56

68:                                               ; preds = %63
  %.not.i61 = icmp eq i32 %64, 0
  br i1 %.not.i61, label %lean_dec.exit56, label %69

69:                                               ; preds = %68
  tail call void @lean_dec_ref_cold(ptr noundef nonnull %58) #5
  br label %lean_dec.exit56

lean_dec.exit56:                                  ; preds = %69, %68, %66, %56
  %70 = icmp eq i8 %60, 0
  br i1 %70, label %71, label %82

71:                                               ; preds = %lean_dec.exit56
  %72 = ptrtoint ptr %57 to i64
  %73 = and i64 %72, 1
  %.not72 = icmp eq i64 %73, 0
  br i1 %.not72, label %74, label %lean_dec.exit

74:                                               ; preds = %71
  %75 = load i32, ptr %57, align 4, !tbaa !8
  %76 = icmp sgt i32 %75, 1
  br i1 %76, label %77, label %79, !prof !11

77:                                               ; preds = %74
  %78 = add nsw i32 %75, -1
  store i32 %78, ptr %57, align 4, !tbaa !8
  br label %lean_dec.exit

79:                                               ; preds = %74
  %.not.i63 = icmp eq i32 %75, 0
  br i1 %.not.i63, label %lean_dec.exit, label %80

80:                                               ; preds = %79
  tail call void @lean_dec_ref_cold(ptr noundef nonnull %57) #5
  br label %lean_dec.exit

lean_dec.exit:                                    ; preds = %80, %79, %77, %71
  %81 = tail call ptr @lean_apply_9(ptr noundef %41, ptr noundef nonnull inttoptr (i64 1 to ptr), ptr noundef %1, ptr noundef %2, ptr noundef %3, ptr noundef %4, ptr noundef %5, ptr noundef %6, ptr noundef %7, ptr noundef %22) #5
  br label %84

82:                                               ; preds = %lean_dec.exit56
  %83 = tail call ptr @lean_apply_9(ptr noundef %40, ptr noundef %57, ptr noundef %1, ptr noundef %2, ptr noundef %3, ptr noundef %4, ptr noundef %5, ptr noundef %6, ptr noundef %7, ptr noundef %22) #5
  br label %84

84:                                               ; preds = %lean_dec.exit, %82, %lean_dec.exit57
  %.0 = phi ptr [ %55, %lean_dec.exit57 ], [ %81, %lean_dec.exit ], [ %83, %82 ]
  ret ptr %.0
}